EXPORTS
    _Z10tri2_scalePK9triangle2d @1
    _Z10vec2_scale7vector2d @2
    _Z11vec2_length7vector2 @3
    _Z12math_cos_degd @4
    _Z12math_cos_radd @5
    _Z12math_sin_degd @6
    _Z12math_sin_radd @7
    _Z13tri2_is_rightPK9triangle2 @8
    _Z13tri2_is_validPK9triangle2 @9
    _Z13vec2_distance7vector2S_ @10
    _Z13vec2_is_equal7vector2S_ @11
    _Z13vec2_opposite7vector2 @12
    _Z14tri2_perimeterPK9triangle2 @13
    _Z14vec2_normalize7vector2 @14
    _Z15math_deg_to_radd @15
    _Z15math_rad_to_degd @16
    _Z15tri2_is_scalenePK9triangle2 @17
    _Z15tri2_is_similarPK9triangle2S1_ @18
    _Z15tri2_rotate_degPK9triangle2PK7vector2d @19
    _Z15tri2_rotate_radPK9triangle2PK7vector2d @20
    _Z15vec2_orthogonal7vector2 @21
    _Z15vec2_rotate_deg7vector2PKS_d @22
    _Z15vec2_rotate_rad7vector2PKS_d @23
    _Z17tri2_is_congruentPK9triangle2S1_ @24
    _Z17tri2_is_isoscelesPK9triangle2 @25
    _Z17vec2_is_collinear7vector2S_ @26
    _Z18vec2_is_orthogonal7vector2S_ @27
    _Z19tri2_is_equilateralPK9triangle2 @28
    _Z19vec2_length_squared7vector2 @29
    _Z20tri2_rotate_oppositePK9triangle2PK7vector2 @30
    _Z20vec2_rotate_opposite7vector2PKS_ @31
    _Z22tri2_rotate_orthogonalPK9triangle2PK7vector2i @32
    _Z22vec2_rotate_orthogonal7vector2PKS_i @33
    _Z8tri2_newPK7vector2S1_S1_ @34
    _Z8tri2_setP9triangle2PK7vector2S3_S3_ @35
    _Z8vec2_add7vector2d @36
    _Z8vec2_dot7vector2S_ @37
    _Z8vec2_newdd @38
    _Z8vec2_setP7vector2dd @39
    _Z8vec2_sub7vector2d @40
    _Z8vec2_sum7vector2S_ @41
    _Z9math_sqrtd @42
    _Z9tri2_areaPK9triangle2 @43
    _Z9vec2_copyP7vector2S_ @44
    _Z9vec2_diff7vector2S_ @45
    _Z9vec2_nullv @46
    _gmonparam @47 DATA
    _mcleanup @48
    mcount @49
    moncontrol @50
    monstartup @51
    profil @52
    profile_ctl @53
