EXPORTS
    _Z10tri2_scalePK9triangle2d @1
    _Z10vec2_scale7vector2d @2
    _Z11vec2_length7vector2 @3
    _Z12math_cos_degd @4
    _Z12math_cos_radd @5
    _Z12math_sin_degd @6
    _Z12math_sin_radd @7
    _Z13vec2_is_equal7vector2S_ @8
    _Z13vec2_opposite7vector2 @9
    _Z14vec2_normalize7vector2 @10
    _Z15math_deg_to_radd @11
    _Z15math_rad_to_degd @12
    _Z15vec2_orthogonal7vector2 @13
    _Z15vec2_rotate_deg7vector2PKS_d @14
    _Z15vec2_rotate_rad7vector2PKS_d @15
    _Z17vec2_is_collinear7vector2S_ @16
    _Z18vec2_is_orthogonal7vector2S_ @17
    _Z19vec2_length_squared7vector2 @18
    _Z20vec2_rotate_opposite7vector2PKS_ @19
    _Z22vec2_rotate_orthogonal7vector2PKS_i @20
    _Z8tri2_newPK7vector2S1_S1_ @21
    _Z8tri2_setP9triangle2PK7vector2S3_S3_ @22
    _Z8vec2_add7vector2d @23
    _Z8vec2_dot7vector2S_ @24
    _Z8vec2_newdd @25
    _Z8vec2_setP7vector2dd @26
    _Z8vec2_sub7vector2d @27
    _Z8vec2_sum7vector2S_ @28
    _Z9math_sqrtd @29
    _Z9vec2_copyP7vector2S_ @30
    _Z9vec2_diff7vector2S_ @31
    _Z9vec2_nullv @32
